target datalayout = "e-m:e-p270:32:32-p271:32:32-p272:64:64-i64:64-i128:128-f80:128-n8:16:32:64-S128"
target triple = "x86_64-pc-linux-gnu"

%class.QPointF = type { double, double }
%class.QColor = type <{ i32, %"union.QColor::CT", [2 x i8] }>
%"union.QColor::CT" = type { %struct.anon }
%struct.anon = type { i16, i16, i16, i16, i16 }
%class.EqHandle = type { %class.Handle, i32, double, [3 x %class.QPointF], ptr, ptr, ptr }
%class.Handle = type { %class.QGraphicsObject, %class.QColor, i32, ptr }
%class.QGraphicsObject = type { %class.QObject, %class.QGraphicsItem }
%class.QObject = type { ptr, %class.QScopedPointer }
%class.QScopedPointer = type { ptr }
%class.QGraphicsItem = type { ptr, %class.QScopedPointer.4 }
%class.QScopedPointer.4 = type { ptr }
%struct.CHART_INFO = type { ptr, float, float, float, float, i32, i32 }
%class.QWidget = type { %class.QObject, %class.QPaintDevice, ptr }
%class.QPaintDevice = type { ptr, i16, ptr }
%class.QWidgetData = type { i64, i32, %class.QFlags, i32, %class.QRect, [4 x i8], %class.QPalette, %class.QFont, %class.QRect }
%class.QFlags = type { i32 }
%class.QPalette = type <{ ptr, %union.anon, [4 x i8] }>
%union.anon = type { %"struct.QPalette::Data" }
%"struct.QPalette::Data" = type { i32 }
%class.QFont = type <{ %class.QExplicitlySharedDataPointer, i32, [4 x i8] }>
%class.QExplicitlySharedDataPointer = type { ptr }
%class.QRect = type { i32, i32, i32, i32 }

@_ZTV8EqHandle = external unnamed_addr constant { [19 x ptr], [39 x ptr] }, align 8

; Function Attrs: mustprogress nounwind uwtable
define linkonce_odr noundef i32 @_ZNK5QRect6heightEv(ptr noundef nonnull align 4 dereferenceable(16) %0) #1 comdat align 2 {
  %2 = alloca ptr, align 8
  store ptr %0, ptr %2, align 8
  %3 = load ptr, ptr %2, align 8
  %4 = getelementptr inbounds %class.QRect, ptr %3, i32 0, i32 3
  %5 = load i32, ptr %4, align 4
  %6 = getelementptr inbounds %class.QRect, ptr %3, i32 0, i32 1
  %7 = load i32, ptr %6, align 4
  %8 = sub nsw i32 %5, %7
  %9 = add nsw i32 %8, 1
  ret i32 %9
}

; Function Attrs: mustprogress nounwind uwtable
define linkonce_odr noundef i32 @_ZNK7QWidget6heightEv(ptr noundef nonnull align 8 dereferenceable(48) %0) #1 comdat align 2 {
  %2 = alloca ptr, align 8
  store ptr %0, ptr %2, align 8
  %3 = load ptr, ptr %2, align 8
  %4 = getelementptr inbounds %class.QWidget, ptr %3, i32 0, i32 2
  %5 = load ptr, ptr %4, align 8
  %6 = getelementptr inbounds %class.QWidgetData, ptr %5, i32 0, i32 4
  %7 = call noundef i32 @_ZNK5QRect6heightEv(ptr noundef nonnull align 4 dereferenceable(16) %6) #9
  ret i32 %7
}

; Function Attrs: mustprogress nounwind uwtable
define linkonce_odr noundef float @_ZN10CHART_INFO11upperBorderEv(ptr noundef nonnull align 8 dereferenceable(32) %0) #1 comdat align 2 {
  %2 = alloca ptr, align 8
  store ptr %0, ptr %2, align 8
  ret float 1.000000e+01
}

; Function Attrs: mustprogress uwtable
define linkonce_odr noundef float @_ZN10CHART_INFO11lowerBorderEv(ptr noundef nonnull align 8 dereferenceable(32) %0) #0 comdat align 2 {
  %2 = alloca ptr, align 8
  store ptr %0, ptr %2, align 8
  %3 = load ptr, ptr %2, align 8
  %4 = getelementptr inbounds %struct.CHART_INFO, ptr %3, i32 0, i32 0
  %5 = load ptr, ptr %4, align 8
  %6 = call noundef i32 @_ZNK7QWidget6heightEv(ptr noundef nonnull align 8 dereferenceable(48) %5)
  %7 = sitofp i32 %6 to float
  %8 = fsub float %7, 1.000000e+01
  ret float %8
}

; Function Attrs: mustprogress nounwind uwtable
define linkonce_odr void @_ZN7QPointFC2Edd(ptr noundef nonnull align 8 dereferenceable(16) %0, double noundef %1, double noundef %2) unnamed_addr #1 comdat align 2 {
  %4 = alloca ptr, align 8
  %5 = alloca double, align 8
  %6 = alloca double, align 8
  store ptr %0, ptr %4, align 8
  store double %1, ptr %5, align 8
  store double %2, ptr %6, align 8
  %7 = load ptr, ptr %4, align 8
  %8 = getelementptr inbounds %class.QPointF, ptr %7, i32 0, i32 0
  %9 = load double, ptr %5, align 8
  store double %9, ptr %8, align 8
  %10 = getelementptr inbounds %class.QPointF, ptr %7, i32 0, i32 1
  %11 = load double, ptr %6, align 8
  store double %11, ptr %10, align 8
  ret void
}

; Function Attrs: mustprogress uwtable
define linkonce_odr noundef float @_ZN10CHART_INFO11chartHeightEv(ptr noundef nonnull align 8 dereferenceable(32) %0) #0 comdat align 2 {
  %2 = alloca ptr, align 8
  store ptr %0, ptr %2, align 8
  %3 = load ptr, ptr %2, align 8
  %4 = call noundef float @_ZN10CHART_INFO11lowerBorderEv(ptr noundef nonnull align 8 dereferenceable(32) %3)
  %5 = call noundef float @_ZN10CHART_INFO11upperBorderEv(ptr noundef nonnull align 8 dereferenceable(32) %3)
  %6 = fsub float %4, %5
  ret float %6
}

; Function Attrs: mustprogress nounwind uwtable
define linkonce_odr void @_ZN8EqHandle7setSizeEi(ptr noundef nonnull align 8 dereferenceable(152) %0, i32 noundef %1) #1 comdat align 2 {
  %3 = alloca ptr, align 8
  %4 = alloca i32, align 4
  store ptr %0, ptr %3, align 8
  store i32 %1, ptr %4, align 4
  %5 = load ptr, ptr %3, align 8
  %6 = load i32, ptr %4, align 4
  %7 = srem i32 %6, 2
  %8 = icmp eq i32 %7, 0
  br i1 %8, label %9, label %13

9:                                                ; preds = %2
  %10 = load i32, ptr %4, align 4
  %11 = add nsw i32 %10, 1
  %12 = getelementptr inbounds %class.Handle, ptr %5, i32 0, i32 2
  store i32 %11, ptr %12, align 8
  br label %16

13:                                               ; preds = %2
  %14 = load i32, ptr %4, align 4
  %15 = getelementptr inbounds %class.Handle, ptr %5, i32 0, i32 2
  store i32 %14, ptr %15, align 8
  br label %16

16:                                               ; preds = %13, %9
  ret void
}

; Function Attrs: mustprogress nounwind uwtable
define linkonce_odr void @_ZN7QPointFC2Ev(ptr noundef nonnull align 8 dereferenceable(16) %0) unnamed_addr #1 comdat align 2 {
  %2 = alloca ptr, align 8
  store ptr %0, ptr %2, align 8
  %3 = load ptr, ptr %2, align 8
  %4 = getelementptr inbounds %class.QPointF, ptr %3, i32 0, i32 0
  store double 0.000000e+00, ptr %4, align 8
  %5 = getelementptr inbounds %class.QPointF, ptr %3, i32 0, i32 1
  store double 0.000000e+00, ptr %5, align 8
  ret void
}

; Function Attrs: mustprogress nounwind uwtable
define linkonce_odr void @_ZN6QColorC2ERKS_(ptr noundef nonnull align 4 dereferenceable(14) %0, ptr noundef nonnull align 4 dereferenceable(14) %1) unnamed_addr #1 comdat align 2 {
  %3 = alloca ptr, align 8
  %4 = alloca ptr, align 8
  store ptr %0, ptr %3, align 8
  store ptr %1, ptr %4, align 8
  %5 = load ptr, ptr %3, align 8
  %6 = getelementptr inbounds %class.QColor, ptr %5, i32 0, i32 0
  %7 = load ptr, ptr %4, align 8
  %8 = getelementptr inbounds %class.QColor, ptr %7, i32 0, i32 0
  %9 = load i32, ptr %8, align 4
  store i32 %9, ptr %6, align 4
  %10 = getelementptr inbounds %class.QColor, ptr %5, i32 0, i32 1
  %11 = load ptr, ptr %4, align 8
  %12 = getelementptr inbounds %class.QColor, ptr %11, i32 0, i32 1
  call void @llvm.memcpy.p0.p0.i64(ptr align 4 %10, ptr align 4 %12, i64 10, i1 false)
  ret void
}

; Function Attrs: mustprogress uwtable
define void @_ZN8EqHandleC2EP10CHART_INFO6QColor7QPointF21EQUALIZER_HANDLE_TYPEPPS_PdP14QDoubleSpinBoxii(ptr noundef nonnull align 8 dereferenceable(152) %0, ptr noundef %1, ptr noundef %2, double %3, double %4, i32 noundef %5, ptr noundef %6, ptr noundef %7, ptr noundef %8, i32 noundef %9, i32 noundef %10) unnamed_addr #0 align 2 personality ptr @__gxx_personality_v0 {
  %12 = alloca %class.QPointF, align 8
  %13 = alloca ptr, align 8
  %14 = alloca ptr, align 8
  %15 = alloca ptr, align 8
  %16 = alloca i32, align 4
  %17 = alloca ptr, align 8
  %18 = alloca ptr, align 8
  %19 = alloca ptr, align 8
  %20 = alloca i32, align 4
  %21 = alloca i32, align 4
  %22 = alloca %class.QColor, align 4
  %23 = alloca %class.QPointF, align 8
  %24 = alloca ptr, align 8
  %25 = alloca i32, align 4
  %26 = alloca %class.QPointF, align 8
  %27 = alloca %class.QPointF, align 8
  %28 = alloca %class.QPointF, align 8
  %29 = getelementptr inbounds { double, double }, ptr %12, i32 0, i32 0
  store double %3, ptr %29, align 8
  %30 = getelementptr inbounds { double, double }, ptr %12, i32 0, i32 1
  store double %4, ptr %30, align 8
  store ptr %0, ptr %13, align 8
  store ptr %1, ptr %14, align 8
  store ptr %2, ptr %15, align 8
  store i32 %5, ptr %16, align 4
  store ptr %6, ptr %17, align 8
  store ptr %7, ptr %18, align 8
  store ptr %8, ptr %19, align 8
  store i32 %9, ptr %20, align 4
  store i32 %10, ptr %21, align 4
  %31 = load ptr, ptr %13, align 8
  %32 = load ptr, ptr %14, align 8
  call void @_ZN6QColorC2ERKS_(ptr noundef nonnull align 4 dereferenceable(14) %22, ptr noundef nonnull align 4 dereferenceable(14) %2) #9
  call void @llvm.memcpy.p0.p0.i64(ptr align 8 %23, ptr align 8 %12, i64 16, i1 false)
  %33 = load i32, ptr %20, align 4
  %34 = load i32, ptr %21, align 4
  %35 = getelementptr inbounds { double, double }, ptr %23, i32 0, i32 0
  %36 = load double, ptr %35, align 8
  %37 = getelementptr inbounds { double, double }, ptr %23, i32 0, i32 1
  %38 = load double, ptr %37, align 8
  call void @_ZN6HandleC2EP10CHART_INFO6QColor7QPointFii(ptr noundef nonnull align 8 dereferenceable(64) %31, ptr noundef %32, ptr noundef %22, double %36, double %38, i32 noundef %33, i32 noundef %34)
  store ptr getelementptr inbounds ({ [19 x ptr], [39 x ptr] }, ptr @_ZTV8EqHandle, i32 0, i32 0, i32 2), ptr %31, align 8
  %39 = getelementptr inbounds i8, ptr %31, i64 16
  store ptr getelementptr inbounds ({ [19 x ptr], [39 x ptr] }, ptr @_ZTV8EqHandle, i32 0, i32 1, i32 2), ptr %39, align 8
  %40 = getelementptr inbounds %class.EqHandle, ptr %31, i32 0, i32 3
  %41 = getelementptr inbounds [3 x %class.QPointF], ptr %40, i32 0, i32 0
  %42 = getelementptr inbounds %class.QPointF, ptr %41, i64 3
  br label %43

43:                                               ; preds = %45, %11
  %44 = phi ptr [ %41, %11 ], [ %46, %45 ]
  invoke void @_ZN7QPointFC2Ev(ptr noundef nonnull align 8 dereferenceable(16) %44)
          to label %45 unwind label %95

45:                                               ; preds = %43
  %46 = getelementptr inbounds %class.QPointF, ptr %44, i64 1
  %47 = icmp eq ptr %46, %42
  br i1 %47, label %48, label %43

48:                                               ; preds = %45
  %49 = load i32, ptr %21, align 4
  invoke void @_ZN8EqHandle7setSizeEi(ptr noundef nonnull align 8 dereferenceable(152) %31, i32 noundef %49)
          to label %50 unwind label %95

50:                                               ; preds = %48
  %51 = load i32, ptr %16, align 4
  %52 = getelementptr inbounds %class.EqHandle, ptr %31, i32 0, i32 1
  store i32 %51, ptr %52, align 8
  %53 = load ptr, ptr %14, align 8
  %54 = invoke noundef float @_ZN10CHART_INFO11chartHeightEv(ptr noundef nonnull align 8 dereferenceable(32) %53)
          to label %55 unwind label %95

55:                                               ; preds = %50
  %56 = fpext float %54 to double
  %57 = getelementptr inbounds %class.EqHandle, ptr %31, i32 0, i32 2
  store double %56, ptr %57, align 8
  %58 = load ptr, ptr %17, align 8
  %59 = getelementptr inbounds %class.EqHandle, ptr %31, i32 0, i32 5
  store ptr %58, ptr %59, align 8
  %60 = load ptr, ptr %18, align 8
  %61 = getelementptr inbounds %class.EqHandle, ptr %31, i32 0, i32 4
  store ptr %60, ptr %61, align 8
  %62 = load ptr, ptr %19, align 8
  %63 = getelementptr inbounds %class.EqHandle, ptr %31, i32 0, i32 6
  store ptr %62, ptr %63, align 8
  %64 = getelementptr inbounds %class.Handle, ptr %31, i32 0, i32 2
  %65 = load i32, ptr %64, align 8
  %66 = sub nsw i32 0, %65
  %67 = sdiv i32 %66, 2
  %68 = sitofp i32 %67 to double
  %69 = getelementptr inbounds %class.Handle, ptr %31, i32 0, i32 2
  %70 = load i32, ptr %69, align 8
  %71 = sub nsw i32 0, %70
  %72 = sitofp i32 %71 to double
  invoke void @_ZN7QPointFC2Edd(ptr noundef nonnull align 8 dereferenceable(16) %26, double noundef %68, double noundef %72)
          to label %73 unwind label %95

73:                                               ; preds = %55
  %74 = getelementptr inbounds %class.EqHandle, ptr %31, i32 0, i32 3
  %75 = getelementptr inbounds [3 x %class.QPointF], ptr %74, i64 0, i64 0
  call void @llvm.memcpy.p0.p0.i64(ptr align 8 %75, ptr align 8 %26, i64 16, i1 false)
  %76 = getelementptr inbounds %class.Handle, ptr %31, i32 0, i32 2
  %77 = load i32, ptr %76, align 8
  %78 = sdiv i32 %77, 2
  %79 = sitofp i32 %78 to double
  %80 = getelementptr inbounds %class.Handle, ptr %31, i32 0, i32 2
  %81 = load i32, ptr %80, align 8
  %82 = sub nsw i32 0, %81
  %83 = sitofp i32 %82 to double
  invoke void @_ZN7QPointFC2Edd(ptr noundef nonnull align 8 dereferenceable(16) %27, double noundef %79, double noundef %83)
          to label %84 unwind label %95

84:                                               ; preds = %73
  %85 = getelementptr inbounds %class.EqHandle, ptr %31, i32 0, i32 3
  %86 = getelementptr inbounds [3 x %class.QPointF], ptr %85, i64 0, i64 1
  call void @llvm.memcpy.p0.p0.i64(ptr align 8 %86, ptr align 8 %27, i64 16, i1 false)
  %87 = getelementptr inbounds %class.Handle, ptr %31, i32 0, i32 2
  %88 = load i32, ptr %87, align 8
  %89 = sitofp i32 %88 to float
  %90 = fmul float 0xBFFDEB8520000000, %89
  %91 = fpext float %90 to double
  invoke void @_ZN7QPointFC2Edd(ptr noundef nonnull align 8 dereferenceable(16) %28, double noundef 0.000000e+00, double noundef %91)
          to label %92 unwind label %95

92:                                               ; preds = %84
  %93 = getelementptr inbounds %class.EqHandle, ptr %31, i32 0, i32 3
  %94 = getelementptr inbounds [3 x %class.QPointF], ptr %93, i64 0, i64 2
  call void @llvm.memcpy.p0.p0.i64(ptr align 8 %94, ptr align 8 %28, i64 16, i1 false)
  ret void

95:                                               ; preds = %84, %73, %55, %50, %48, %43
  %96 = landingpad { ptr, i32 }
          cleanup
  %97 = extractvalue { ptr, i32 } %96, 0
  store ptr %97, ptr %24, align 8
  %98 = extractvalue { ptr, i32 } %96, 1
  store i32 %98, ptr %25, align 4
  call void @_ZN6HandleD2Ev(ptr noundef nonnull align 8 dereferenceable(64) %31) #9
  br label %99

99:                                               ; preds = %95
  %100 = load ptr, ptr %24, align 8
  %101 = load i32, ptr %25, align 4
  %102 = insertvalue { ptr, i32 } poison, ptr %100, 0
  %103 = insertvalue { ptr, i32 } %102, i32 %101, 1
  resume { ptr, i32 } %103
}