; Function Attrs: mustprogress uwtable
define void @_ZN8EqHandleC2EP10CHART_INFO6QColor7QPointF21EQUALIZER_HANDLE_TYPEPPS_PdP14QDoubleSpinBoxii(ptr noundef nonnull align 8 dereferenceable(152) %0, ptr noundef %1, ptr nocapture noundef readonly %2, double %3, double %4, i32 noundef %5, ptr noundef %6, ptr noundef %7, ptr noundef %8, i32 noundef %9, i32 noundef %10) unnamed_addr #0 align 2 personality ptr @__gxx_personality_v0 {
  %12 = alloca %class.QColor, align 4
  %13 = load i32, ptr %2, align 4
  store i32 %13, ptr %12, align 4
  %14 = getelementptr inbounds i8, ptr %12, i64 4
  %15 = getelementptr inbounds i8, ptr %2, i64 4
  call void @llvm.memcpy.p0.p0.i64(ptr noundef nonnull align 4 dereferenceable(10) %14, ptr noundef nonnull align 4 dereferenceable(10) %15, i64 10, i1 false)
  call void @_ZN6HandleC2EP10CHART_INFO6QColor7QPointFii(ptr noundef nonnull align 8 dereferenceable(64) %0, ptr noundef %1, ptr noundef nonnull %12, double %3, double %4, i32 noundef %9, i32 noundef %10)
  store ptr getelementptr inbounds ({ [19 x ptr], [39 x ptr] }, ptr @_ZTV8EqHandle, i64 0, i32 0, i64 2), ptr %0, align 8
  %16 = getelementptr inbounds i8, ptr %0, i64 16
  store ptr getelementptr inbounds ({ [19 x ptr], [39 x ptr] }, ptr @_ZTV8EqHandle, i64 0, i32 1, i64 2), ptr %16, align 8
  %scevgep = getelementptr inbounds i8, ptr %0, i64 80
  call void @llvm.memset.p0.i64(ptr noundef nonnull align 8 dereferenceable(48) %scevgep, i8 0, i64 48, i1 false)
  %spec.select.i = or i32 %10, 1
  %17 = getelementptr inbounds i8, ptr %0, i64 48
  store i32 %spec.select.i, ptr %17, align 8
  %18 = getelementptr inbounds i8, ptr %0, i64 64
  store i32 %5, ptr %18, align 8
  %19 = load ptr, ptr %1, align 8
  %20 = getelementptr inbounds i8, ptr %19, i64 40
  %21 = load ptr, ptr %20, align 8
  %22 = getelementptr inbounds i8, ptr %21, i64 32
  %23 = load i32, ptr %22, align 4
  %24 = getelementptr inbounds i8, ptr %21, i64 24
  %25 = load i32, ptr %24, align 4
  %26 = add i32 %23, 1
  %27 = sub i32 %26, %25
  %28 = sitofp i32 %27 to float
  %29 = fadd float %28, -1.000000e+01
  %30 = fadd float %29, -1.000000e+01
  %31 = fpext float %30 to double
  %32 = getelementptr inbounds i8, ptr %0, i64 72
  store double %31, ptr %32, align 8
  %33 = getelementptr inbounds i8, ptr %0, i64 136
  store ptr %6, ptr %33, align 8
  %34 = getelementptr inbounds i8, ptr %0, i64 128
  store ptr %7, ptr %34, align 8
  %35 = getelementptr inbounds i8, ptr %0, i64 144
  store ptr %8, ptr %35, align 8
  %36 = sub nsw i32 0, %spec.select.i
  %37 = sdiv i32 %spec.select.i, -2
  %38 = sitofp i32 %37 to double
  %39 = sitofp i32 %36 to double
  store double %38, ptr %scevgep, align 8
  %.sroa.218.0..ptr14.sroa_idx = getelementptr inbounds i8, ptr %0, i64 88
  store double %39, ptr %.sroa.218.0..ptr14.sroa_idx, align 8
  %40 = sdiv i32 %spec.select.i, 2
  %41 = sitofp i32 %40 to double
  %42 = getelementptr inbounds i8, ptr %0, i64 96
  store double %41, ptr %42, align 8
  %.sroa.216.0..sroa_idx = getelementptr inbounds i8, ptr %0, i64 104
  store double %39, ptr %.sroa.216.0..sroa_idx, align 8
  %43 = sitofp i32 %spec.select.i to float
  %44 = fmul float %43, 0xBFFDEB8520000000
  %45 = fpext float %44 to double
  %46 = getelementptr inbounds i8, ptr %0, i64 112
  store double 0.000000e+00, ptr %46, align 8
  %.sroa.2.0..sroa_idx = getelementptr inbounds i8, ptr %0, i64 120
  store double %45, ptr %.sroa.2.0..sroa_idx, align 8
  ret void
}